target datalayout = "e-m:e-p270:32:32-p271:32:32-p272:64:64-i64:64-i128:128-f80:128-n8:16:32:64-S128"
target triple = "x86_64-pc-linux-gnu"

%struct.Aig_Obj_t_ = type { %union.anon, ptr, ptr, i64, i32, i32, %union.anon.0 }
%union.anon = type { ptr }
%union.anon.0 = type { ptr }

; Function Attrs: inlinehint nounwind uwtable
define internal ptr @Aig_NotCond(ptr noundef %0, i32 noundef %1) #4 {
  %3 = alloca ptr, align 8
  %4 = alloca i32, align 4
  store ptr %0, ptr %3, align 8, !tbaa !24
  store i32 %1, ptr %4, align 4, !tbaa !22
  %5 = load ptr, ptr %3, align 8, !tbaa !24
  %6 = ptrtoint ptr %5 to i64
  %7 = load i32, ptr %4, align 4, !tbaa !22
  %8 = sext i32 %7 to i64
  %9 = xor i64 %6, %8
  %10 = inttoptr i64 %9 to ptr
  ret ptr %10
}

; Function Attrs: inlinehint nounwind uwtable
define internal i32 @Aig_IsComplement(ptr noundef %0) #4 {
  %2 = alloca ptr, align 8
  store ptr %0, ptr %2, align 8, !tbaa !24
  %3 = load ptr, ptr %2, align 8, !tbaa !24
  %4 = ptrtoint ptr %3 to i64
  %5 = and i64 %4, 1
  %6 = trunc i64 %5 to i32
  ret i32 %6
}

; Function Attrs: inlinehint nounwind uwtable
define internal ptr @Aig_ObjChild0(ptr noundef %0) #4 {
  %2 = alloca ptr, align 8
  store ptr %0, ptr %2, align 8, !tbaa !24
  %3 = load ptr, ptr %2, align 8, !tbaa !24
  %4 = getelementptr inbounds nuw %struct.Aig_Obj_t_, ptr %3, i32 0, i32 1
  %5 = load ptr, ptr %4, align 8, !tbaa !37
  ret ptr %5
}

; Function Attrs: inlinehint nounwind uwtable
define internal i32 @Aig_ObjIsBuf(ptr noundef %0) #4 {
  %2 = alloca ptr, align 8
  store ptr %0, ptr %2, align 8, !tbaa !24
  %3 = load ptr, ptr %2, align 8, !tbaa !24
  %4 = getelementptr inbounds nuw %struct.Aig_Obj_t_, ptr %3, i32 0, i32 3
  %5 = load i64, ptr %4, align 8
  %6 = and i64 %5, 7
  %7 = trunc i64 %6 to i32
  %8 = icmp eq i32 %7, 4
  %9 = zext i1 %8 to i32
  ret i32 %9
}

; Function Attrs: inlinehint nounwind uwtable
define internal ptr @Aig_Regular(ptr noundef %0) #4 {
  %2 = alloca ptr, align 8
  store ptr %0, ptr %2, align 8, !tbaa !24
  %3 = load ptr, ptr %2, align 8, !tbaa !24
  %4 = ptrtoint ptr %3 to i64
  %5 = and i64 %4, -2
  %6 = inttoptr i64 %5 to ptr
  ret ptr %6
}

; Function Attrs: nounwind uwtable
define ptr @Aig_ObjReal_rec(ptr noundef %0) #0 {
  %2 = alloca ptr, align 8
  %3 = alloca ptr, align 8
  %4 = alloca ptr, align 8
  %5 = alloca ptr, align 8
  %6 = alloca i32, align 4
  store ptr %0, ptr %3, align 8, !tbaa !24
  call void @llvm.lifetime.start.p0(i64 8, ptr %4) #10
  call void @llvm.lifetime.start.p0(i64 8, ptr %5) #10
  %7 = load ptr, ptr %3, align 8, !tbaa !24
  %8 = call ptr @Aig_Regular(ptr noundef %7)
  store ptr %8, ptr %5, align 8, !tbaa !24
  %9 = load ptr, ptr %5, align 8, !tbaa !24
  %10 = call i32 @Aig_ObjIsBuf(ptr noundef %9)
  %11 = icmp ne i32 %10, 0
  br i1 %11, label %14, label %12

12:                                               ; preds = %1
  %13 = load ptr, ptr %3, align 8, !tbaa !24
  store ptr %13, ptr %2, align 8
  store i32 1, ptr %6, align 4
  br label %22

14:                                               ; preds = %1
  %15 = load ptr, ptr %5, align 8, !tbaa !24
  %16 = call ptr @Aig_ObjChild0(ptr noundef %15)
  %17 = call ptr @Aig_ObjReal_rec(ptr noundef %16)
  store ptr %17, ptr %4, align 8, !tbaa !24
  %18 = load ptr, ptr %4, align 8, !tbaa !24
  %19 = load ptr, ptr %3, align 8, !tbaa !24
  %20 = call i32 @Aig_IsComplement(ptr noundef %19)
  %21 = call ptr @Aig_NotCond(ptr noundef %18, i32 noundef %20)
  store ptr %21, ptr %2, align 8
  store i32 1, ptr %6, align 4
  br label %22

22:                                               ; preds = %14, %12
  call void @llvm.lifetime.end.p0(i64 8, ptr %5) #10
  call void @llvm.lifetime.end.p0(i64 8, ptr %4) #10
  %23 = load ptr, ptr %2, align 8
  ret ptr %23
}