; Function Attrs: nofree nosync nounwind memory(read, inaccessiblemem: none) uwtable
define ptr @Aig_ObjReal_rec(ptr noundef %0) local_unnamed_addr #10 {
  %2 = ptrtoint ptr %0 to i64
  %3 = and i64 %2, -2
  %4 = inttoptr i64 %3 to ptr
  %5 = getelementptr i8, ptr %4, i64 24
  %.val7 = load i64, ptr %5, align 8
  %6 = and i64 %.val7, 7
  %.not = icmp eq i64 %6, 4
  br i1 %.not, label %7, label %common.ret8

common.ret8:                                      ; preds = %1, %7
  %common.ret8.op = phi ptr [ %13, %7 ], [ %0, %1 ]
  ret ptr %common.ret8.op

7:                                                ; preds = %1
  %8 = getelementptr i8, ptr %4, i64 8
  %.val = load ptr, ptr %8, align 8, !tbaa !32
  %9 = tail call ptr @Aig_ObjReal_rec(ptr noundef %.val)
  %10 = and i64 %2, 1
  %11 = ptrtoint ptr %9 to i64
  %12 = xor i64 %10, %11
  %13 = inttoptr i64 %12 to ptr
  br label %common.ret8
}